target datalayout = "e-m:e-p270:32:32-p271:32:32-p272:64:64-i64:64-i128:128-f80:128-n8:16:32:64-S128"
target triple = "x86_64-pc-linux-gnu"

@_ZN23java_lang_reflect_Field13_clazz_offsetE = hidden global i32 0, align 4
@_ZN23java_lang_reflect_Field12_name_offsetE = hidden global i32 0, align 4
@_ZN23java_lang_reflect_Field12_type_offsetE = hidden global i32 0, align 4
@_ZN23java_lang_reflect_Field12_slot_offsetE = hidden global i32 0, align 4
@_ZN23java_lang_reflect_Field17_modifiers_offsetE = hidden global i32 0, align 4
@_ZN23java_lang_reflect_Field21_trusted_final_offsetE = hidden global i32 0, align 4
@_ZN23java_lang_reflect_Field17_signature_offsetE = hidden global i32 0, align 4
@_ZN23java_lang_reflect_Field19_annotations_offsetE = hidden global i32 0, align 4

; Function Attrs: mustprogress nounwind uwtable
define hidden void @_ZN23java_lang_reflect_Field17serialize_offsetsEP16SerializeClosure(ptr noundef %0) #1 align 2 {
  %2 = alloca ptr, align 8
  store ptr %0, ptr %2, align 8
  %3 = load ptr, ptr %2, align 8
  %4 = load ptr, ptr %3, align 8
  %5 = getelementptr inbounds ptr, ptr %4, i64 3
  %6 = load ptr, ptr %5, align 8
  call void %6(ptr noundef nonnull align 8 dereferenceable(8) %3, ptr noundef @_ZN23java_lang_reflect_Field13_clazz_offsetE)
  %7 = load ptr, ptr %2, align 8
  %8 = load ptr, ptr %7, align 8
  %9 = getelementptr inbounds ptr, ptr %8, i64 3
  %10 = load ptr, ptr %9, align 8
  call void %10(ptr noundef nonnull align 8 dereferenceable(8) %7, ptr noundef @_ZN23java_lang_reflect_Field12_name_offsetE)
  %11 = load ptr, ptr %2, align 8
  %12 = load ptr, ptr %11, align 8
  %13 = getelementptr inbounds ptr, ptr %12, i64 3
  %14 = load ptr, ptr %13, align 8
  call void %14(ptr noundef nonnull align 8 dereferenceable(8) %11, ptr noundef @_ZN23java_lang_reflect_Field12_type_offsetE)
  %15 = load ptr, ptr %2, align 8
  %16 = load ptr, ptr %15, align 8
  %17 = getelementptr inbounds ptr, ptr %16, i64 3
  %18 = load ptr, ptr %17, align 8
  call void %18(ptr noundef nonnull align 8 dereferenceable(8) %15, ptr noundef @_ZN23java_lang_reflect_Field12_slot_offsetE)
  %19 = load ptr, ptr %2, align 8
  %20 = load ptr, ptr %19, align 8
  %21 = getelementptr inbounds ptr, ptr %20, i64 3
  %22 = load ptr, ptr %21, align 8
  call void %22(ptr noundef nonnull align 8 dereferenceable(8) %19, ptr noundef @_ZN23java_lang_reflect_Field17_modifiers_offsetE)
  %23 = load ptr, ptr %2, align 8
  %24 = load ptr, ptr %23, align 8
  %25 = getelementptr inbounds ptr, ptr %24, i64 3
  %26 = load ptr, ptr %25, align 8
  call void %26(ptr noundef nonnull align 8 dereferenceable(8) %23, ptr noundef @_ZN23java_lang_reflect_Field21_trusted_final_offsetE)
  %27 = load ptr, ptr %2, align 8
  %28 = load ptr, ptr %27, align 8
  %29 = getelementptr inbounds ptr, ptr %28, i64 3
  %30 = load ptr, ptr %29, align 8
  call void %30(ptr noundef nonnull align 8 dereferenceable(8) %27, ptr noundef @_ZN23java_lang_reflect_Field17_signature_offsetE)
  %31 = load ptr, ptr %2, align 8
  %32 = load ptr, ptr %31, align 8
  %33 = getelementptr inbounds ptr, ptr %32, i64 3
  %34 = load ptr, ptr %33, align 8
  call void %34(ptr noundef nonnull align 8 dereferenceable(8) %31, ptr noundef @_ZN23java_lang_reflect_Field19_annotations_offsetE)
  ret void
}