; Function Attrs: mustprogress nounwind uwtable
define hidden void @_ZN23java_lang_reflect_Field17serialize_offsetsEP16SerializeClosure(ptr noundef %0) local_unnamed_addr #0 align 2 {
  %2 = load ptr, ptr %0, align 8
  %3 = getelementptr inbounds i8, ptr %2, i64 24
  %4 = load ptr, ptr %3, align 8
  tail call void %4(ptr noundef nonnull align 8 dereferenceable(8) %0, ptr noundef nonnull @_ZN23java_lang_reflect_Field13_clazz_offsetE) #19
  %5 = load ptr, ptr %0, align 8
  %6 = getelementptr inbounds i8, ptr %5, i64 24
  %7 = load ptr, ptr %6, align 8
  tail call void %7(ptr noundef nonnull align 8 dereferenceable(8) %0, ptr noundef nonnull @_ZN23java_lang_reflect_Field12_name_offsetE) #19
  %8 = load ptr, ptr %0, align 8
  %9 = getelementptr inbounds i8, ptr %8, i64 24
  %10 = load ptr, ptr %9, align 8
  tail call void %10(ptr noundef nonnull align 8 dereferenceable(8) %0, ptr noundef nonnull @_ZN23java_lang_reflect_Field12_type_offsetE) #19
  %11 = load ptr, ptr %0, align 8
  %12 = getelementptr inbounds i8, ptr %11, i64 24
  %13 = load ptr, ptr %12, align 8
  tail call void %13(ptr noundef nonnull align 8 dereferenceable(8) %0, ptr noundef nonnull @_ZN23java_lang_reflect_Field12_slot_offsetE) #19
  %14 = load ptr, ptr %0, align 8
  %15 = getelementptr inbounds i8, ptr %14, i64 24
  %16 = load ptr, ptr %15, align 8
  tail call void %16(ptr noundef nonnull align 8 dereferenceable(8) %0, ptr noundef nonnull @_ZN23java_lang_reflect_Field17_modifiers_offsetE) #19
  %17 = load ptr, ptr %0, align 8
  %18 = getelementptr inbounds i8, ptr %17, i64 24
  %19 = load ptr, ptr %18, align 8
  tail call void %19(ptr noundef nonnull align 8 dereferenceable(8) %0, ptr noundef nonnull @_ZN23java_lang_reflect_Field21_trusted_final_offsetE) #19
  %20 = load ptr, ptr %0, align 8
  %21 = getelementptr inbounds i8, ptr %20, i64 24
  %22 = load ptr, ptr %21, align 8
  tail call void %22(ptr noundef nonnull align 8 dereferenceable(8) %0, ptr noundef nonnull @_ZN23java_lang_reflect_Field17_signature_offsetE) #19
  %23 = load ptr, ptr %0, align 8
  %24 = getelementptr inbounds i8, ptr %23, i64 24
  %25 = load ptr, ptr %24, align 8
  tail call void %25(ptr noundef nonnull align 8 dereferenceable(8) %0, ptr noundef nonnull @_ZN23java_lang_reflect_Field19_annotations_offsetE) #19
  ret void
}